#include <math.h>
#include <stdio.h>
#include <stdlib.h>
#include <string.h>

int main()
{
	int n,i,j,k=1,sz[100000],num=0;
	scanf("%d",&n);
	sz[0]=3;
	for(i=3;i<=n;i++){
		for(j=2;j<=(i/2);j++){
			if(i%j==0)break;
			if(j==(i/2))sz[k++]=i;
		}
	}
	for(i=0;i<=n;i++){
		if(sz[i+1]-sz[i]==2){
			printf("%d %d\n",sz[i],sz[i+1]);
			num+=1;
		}
	}
	if(num==0)printf("empty");
	return 0;
}

